target datalayout = "e-m:e-p270:32:32-p271:32:32-p272:64:64-i64:64-i128:128-f80:128-n8:16:32:64-S128"
target triple = "x86_64-pc-linux-gnu"

%struct.FormData_pg_operator = type { i32, %struct.nameData, i32, i32, i8, i8, i8, i32, i32, i32, i32, i32, i32, i32, i32 }
%struct.nameData = type { [64 x i8] }
%struct.HeapTupleData = type { i32, %struct.ItemPointerData, i32, ptr }
%struct.ItemPointerData = type { %struct.BlockIdData, i16 }
%struct.BlockIdData = type { i16, i16 }
%struct.HeapTupleHeaderData = type { %union.anon, %struct.ItemPointerData, i16, i16, i8, [0 x i8] }
%union.anon = type { %struct.HeapTupleFields }
%struct.HeapTupleFields = type { i32, i32, %union.anon.0 }
%union.anon.0 = type { i32 }

@.str.2 = private unnamed_addr constant [15 x i8] c"operatorcmds.c\00", align 1
@.str.21 = private unnamed_addr constant [36 x i8] c"cache lookup failed for operator %u\00", align 1
@__func__.RemoveOperatorById = private unnamed_addr constant [19 x i8] c"RemoveOperatorById\00", align 1

; Function Attrs: inlinehint nounwind uwtable
define internal ptr @GETSTRUCT(ptr noundef %0) #7 {
  %2 = alloca ptr, align 8
  store ptr %0, ptr %2, align 8
  %3 = load ptr, ptr %2, align 8
  %4 = getelementptr inbounds nuw %struct.HeapTupleData, ptr %3, i32 0, i32 3
  %5 = load ptr, ptr %4, align 8
  %6 = load ptr, ptr %2, align 8
  %7 = getelementptr inbounds nuw %struct.HeapTupleData, ptr %6, i32 0, i32 3
  %8 = load ptr, ptr %7, align 8
  %9 = getelementptr inbounds nuw %struct.HeapTupleHeaderData, ptr %8, i32 0, i32 4
  %10 = load i8, ptr %9, align 2
  %11 = zext i8 %10 to i32
  %12 = sext i32 %11 to i64
  %13 = getelementptr inbounds i8, ptr %5, i64 %12
  ret ptr %13
}

; Function Attrs: inlinehint nounwind uwtable
define internal i64 @ObjectIdGetDatum(i32 noundef %0) #7 {
  %2 = alloca i32, align 4
  store i32 %0, ptr %2, align 4
  %3 = load i32, ptr %2, align 4
  %4 = zext i32 %3 to i64
  ret i64 %4
}

; Function Attrs: nounwind uwtable
define dso_local void @RemoveOperatorById(i32 noundef %0) #0 {
  %2 = alloca i32, align 4
  %3 = alloca ptr, align 8
  %4 = alloca ptr, align 8
  %5 = alloca ptr, align 8
  store i32 %0, ptr %2, align 4
  call void @llvm.lifetime.start.p0(i64 8, ptr %3) #8
  call void @llvm.lifetime.start.p0(i64 8, ptr %4) #8
  call void @llvm.lifetime.start.p0(i64 8, ptr %5) #8
  %6 = call ptr @table_open(i32 noundef 2617, i32 noundef 3)
  store ptr %6, ptr %3, align 8
  %7 = load i32, ptr %2, align 4
  %8 = call i64 @ObjectIdGetDatum(i32 noundef %7)
  %9 = call ptr @SearchSysCache1(i32 noundef 40, i64 noundef %8)
  store ptr %9, ptr %4, align 8
  %10 = load ptr, ptr %4, align 8
  %11 = icmp ne ptr %10, null
  br i1 %11, label %24, label %12

12:                                               ; preds = %1
  br label %13

13:                                               ; preds = %12
  br i1 true, label %14, label %16

14:                                               ; preds = %13
  %15 = call zeroext i1 @errstart_cold(i32 noundef 21, ptr noundef null) #10
  br i1 %15, label %18, label %21

16:                                               ; preds = %13
  %17 = call zeroext i1 @errstart(i32 noundef 21, ptr noundef null)
  br i1 %17, label %18, label %21

18:                                               ; preds = %16, %14
  %19 = load i32, ptr %2, align 4
  %20 = call i32 (ptr, ...) @errmsg_internal(ptr noundef @.str.21, i32 noundef %19)
  call void @errfinish(ptr noundef @.str.2, i32 noundef 423, ptr noundef @__func__.RemoveOperatorById)
  br label %21

21:                                               ; preds = %18, %16, %14
  unreachable

22:                                               ; No predecessors!
  br label %23

23:                                               ; preds = %22
  br label %24

24:                                               ; preds = %23, %1
  %25 = load ptr, ptr %4, align 8
  %26 = call ptr @GETSTRUCT(ptr noundef %25)
  store ptr %26, ptr %5, align 8
  %27 = load ptr, ptr %5, align 8
  %28 = getelementptr inbounds nuw %struct.FormData_pg_operator, ptr %27, i32 0, i32 10
  %29 = load i32, ptr %28, align 4
  %30 = icmp ne i32 %29, 0
  br i1 %30, label %36, label %31

31:                                               ; preds = %24
  %32 = load ptr, ptr %5, align 8
  %33 = getelementptr inbounds nuw %struct.FormData_pg_operator, ptr %32, i32 0, i32 11
  %34 = load i32, ptr %33, align 4
  %35 = icmp ne i32 %34, 0
  br i1 %35, label %36, label %76

36:                                               ; preds = %31, %24
  %37 = load i32, ptr %2, align 4
  %38 = load ptr, ptr %5, align 8
  %39 = getelementptr inbounds nuw %struct.FormData_pg_operator, ptr %38, i32 0, i32 10
  %40 = load i32, ptr %39, align 4
  %41 = load ptr, ptr %5, align 8
  %42 = getelementptr inbounds nuw %struct.FormData_pg_operator, ptr %41, i32 0, i32 11
  %43 = load i32, ptr %42, align 4
  call void @OperatorUpd(i32 noundef %37, i32 noundef %40, i32 noundef %43, i1 noundef zeroext true)
  %44 = load i32, ptr %2, align 4
  %45 = load ptr, ptr %5, align 8
  %46 = getelementptr inbounds nuw %struct.FormData_pg_operator, ptr %45, i32 0, i32 10
  %47 = load i32, ptr %46, align 4
  %48 = icmp eq i32 %44, %47
  br i1 %48, label %55, label %49

49:                                               ; preds = %36
  %50 = load i32, ptr %2, align 4
  %51 = load ptr, ptr %5, align 8
  %52 = getelementptr inbounds nuw %struct.FormData_pg_operator, ptr %51, i32 0, i32 11
  %53 = load i32, ptr %52, align 4
  %54 = icmp eq i32 %50, %53
  br i1 %54, label %55, label %75

55:                                               ; preds = %49, %36
  %56 = load ptr, ptr %4, align 8
  call void @ReleaseSysCache(ptr noundef %56)
  %57 = load i32, ptr %2, align 4
  %58 = call i64 @ObjectIdGetDatum(i32 noundef %57)
  %59 = call ptr @SearchSysCache1(i32 noundef 40, i64 noundef %58)
  store ptr %59, ptr %4, align 8
  %60 = load ptr, ptr %4, align 8
  %61 = icmp ne ptr %60, null
  br i1 %61, label %74, label %62

62:                                               ; preds = %55
  br label %63

63:                                               ; preds = %62
  br i1 true, label %64, label %66

64:                                               ; preds = %63
  %65 = call zeroext i1 @errstart_cold(i32 noundef 21, ptr noundef null) #10
  br i1 %65, label %68, label %71

66:                                               ; preds = %63
  %67 = call zeroext i1 @errstart(i32 noundef 21, ptr noundef null)
  br i1 %67, label %68, label %71

68:                                               ; preds = %66, %64
  %69 = load i32, ptr %2, align 4
  %70 = call i32 (ptr, ...) @errmsg_internal(ptr noundef @.str.21, i32 noundef %69)
  call void @errfinish(ptr noundef @.str.2, i32 noundef 440, ptr noundef @__func__.RemoveOperatorById)
  br label %71

71:                                               ; preds = %68, %66, %64
  unreachable

72:                                               ; No predecessors!
  br label %73

73:                                               ; preds = %72
  br label %74

74:                                               ; preds = %73, %55
  br label %75

75:                                               ; preds = %74, %49
  br label %76

76:                                               ; preds = %75, %31
  %77 = load ptr, ptr %3, align 8
  %78 = load ptr, ptr %4, align 8
  %79 = getelementptr inbounds nuw %struct.HeapTupleData, ptr %78, i32 0, i32 1
  call void @CatalogTupleDelete(ptr noundef %77, ptr noundef %79)
  %80 = load ptr, ptr %4, align 8
  call void @ReleaseSysCache(ptr noundef %80)
  %81 = load ptr, ptr %3, align 8
  call void @table_close(ptr noundef %81, i32 noundef 3)
  call void @llvm.lifetime.end.p0(i64 8, ptr %5) #8
  call void @llvm.lifetime.end.p0(i64 8, ptr %4) #8
  call void @llvm.lifetime.end.p0(i64 8, ptr %3) #8
  ret void
}