; Function Attrs: nounwind uwtable
define dso_local void @RemoveOperatorById(i32 noundef %0) local_unnamed_addr #0 {
  %2 = tail call ptr @table_open(i32 noundef 2617, i32 noundef 3) #7
  %3 = zext i32 %0 to i64
  %4 = tail call ptr @SearchSysCache1(i32 noundef 40, i64 noundef %3) #7
  %.not = icmp eq ptr %4, null
  br i1 %.not, label %5, label %8

5:                                                ; preds = %1
  %6 = tail call zeroext i1 @errstart_cold(i32 noundef 21, ptr noundef null) #9
  tail call void @llvm.assume(i1 %6)
  %7 = tail call i32 (ptr, ...) @errmsg_internal(ptr noundef nonnull @.str.21, i32 noundef %0) #7
  tail call void @errfinish(ptr noundef nonnull @.str.2, i32 noundef 423, ptr noundef nonnull @__func__.RemoveOperatorById) #7
  unreachable

8:                                                ; preds = %1
  %9 = getelementptr i8, ptr %4, i64 16
  %.val = load ptr, ptr %9, align 8
  %10 = getelementptr inbounds nuw i8, ptr %.val, i64 22
  %11 = load i8, ptr %10, align 2
  %12 = zext i8 %11 to i64
  %13 = getelementptr inbounds nuw i8, ptr %.val, i64 %12
  %14 = getelementptr inbounds nuw i8, ptr %13, i64 92
  %15 = load i32, ptr %14, align 4
  %.not23 = icmp eq i32 %15, 0
  %16 = getelementptr inbounds nuw i8, ptr %13, i64 96
  %17 = load i32, ptr %16, align 4
  %.not24 = icmp eq i32 %17, 0
  %or.cond = select i1 %.not23, i1 %.not24, i1 false
  br i1 %or.cond, label %29, label %._crit_edge

._crit_edge:                                      ; preds = %8
  tail call void @OperatorUpd(i32 noundef %0, i32 noundef %15, i32 noundef %17, i1 noundef zeroext true) #7
  %18 = load i32, ptr %14, align 4
  %19 = icmp eq i32 %0, %18
  br i1 %19, label %24, label %20

20:                                               ; preds = %._crit_edge
  %21 = getelementptr inbounds nuw i8, ptr %13, i64 96
  %22 = load i32, ptr %21, align 4
  %23 = icmp eq i32 %0, %22
  br i1 %23, label %24, label %29

24:                                               ; preds = %20, %._crit_edge
  tail call void @ReleaseSysCache(ptr noundef nonnull %4) #7
  %25 = tail call ptr @SearchSysCache1(i32 noundef 40, i64 noundef %3) #7
  %.not25 = icmp eq ptr %25, null
  br i1 %.not25, label %26, label %29

26:                                               ; preds = %24
  %27 = tail call zeroext i1 @errstart_cold(i32 noundef 21, ptr noundef null) #9
  tail call void @llvm.assume(i1 %27)
  %28 = tail call i32 (ptr, ...) @errmsg_internal(ptr noundef nonnull @.str.21, i32 noundef %0) #7
  tail call void @errfinish(ptr noundef nonnull @.str.2, i32 noundef 440, ptr noundef nonnull @__func__.RemoveOperatorById) #7
  unreachable

29:                                               ; preds = %8, %20, %24
  %.0 = phi ptr [ %25, %24 ], [ %4, %20 ], [ %4, %8 ]
  %30 = getelementptr inbounds nuw i8, ptr %.0, i64 4
  tail call void @CatalogTupleDelete(ptr noundef %2, ptr noundef nonnull %30) #7
  tail call void @ReleaseSysCache(ptr noundef nonnull %.0) #7
  tail call void @table_close(ptr noundef %2, i32 noundef 3) #7
  ret void
}